; Function Attrs: mustprogress nounwind uwtable
define dso_local noundef i32 @_ZN5clang7CodeGen15CodeGenFunction18getAccessedFieldNoEjPKN4llvm8ConstantE(i32 noundef %0, ptr noundef nonnull %1) local_unnamed_addr #0 align 2 {
  %3 = tail call noundef ptr @_ZNK4llvm8Constant19getAggregateElementEj(ptr noundef nonnull align 8 dereferenceable(24) %1, i32 noundef %0) #22
  %4 = getelementptr inbounds nuw i8, ptr %3, i64 24
  %5 = getelementptr inbounds i8, ptr %3, i64 32
  %6 = load i32, ptr %5, align 8
  %7 = icmp ult i32 %6, 65
  %8 = load ptr, ptr %4, align 8
  %.0.in.i.i = select i1 %7, ptr %4, ptr %8
  %.0.i.i = load i64, ptr %.0.in.i.i, align 8
  %9 = trunc i64 %.0.i.i to i32
  ret i32 %9
}